target datalayout = "e-m:e-p270:32:32-p271:32:32-p272:64:64-i64:64-i128:128-f80:128-n8:16:32:64-S128"
target triple = "x86_64-pc-linux-gnu"

@.str = private unnamed_addr constant [35 x i8] c"archive_read_support_format_gnutar\00", align 1

; Function Attrs: nounwind uwtable
define dso_local i32 @archive_read_support_format_gnutar(ptr noundef %0) #0 {
  %2 = alloca i32, align 4
  %3 = alloca ptr, align 8
  %4 = alloca i32, align 4
  %5 = alloca i32, align 4
  store ptr %0, ptr %3, align 8, !tbaa !4
  br label %6

6:                                                ; preds = %1
  call void @llvm.lifetime.start.p0(i64 4, ptr %4) #10
  %7 = load ptr, ptr %3, align 8, !tbaa !4
  %8 = call i32 @__archive_check_magic(ptr noundef %7, i32 noundef 14594245, i32 noundef 1, ptr noundef @.str)
  store i32 %8, ptr %4, align 4, !tbaa !9
  %9 = load i32, ptr %4, align 4, !tbaa !9
  %10 = icmp eq i32 %9, -30
  br i1 %10, label %11, label %12

11:                                               ; preds = %6
  store i32 -30, ptr %2, align 4
  store i32 1, ptr %5, align 4
  br label %13

12:                                               ; preds = %6
  store i32 0, ptr %5, align 4
  br label %13

13:                                               ; preds = %12, %11
  call void @llvm.lifetime.end.p0(i64 4, ptr %4) #10
  %14 = load i32, ptr %5, align 4
  switch i32 %14, label %21 [
    i32 0, label %15
    i32 1, label %19
  ]

15:                                               ; preds = %13
  br label %16

16:                                               ; preds = %15
  %17 = load ptr, ptr %3, align 8, !tbaa !4
  %18 = call i32 @archive_read_support_format_tar(ptr noundef %17)
  store i32 %18, ptr %2, align 4
  br label %19

19:                                               ; preds = %16, %13
  %20 = load i32, ptr %2, align 4
  ret i32 %20

21:                                               ; preds = %13
  unreachable
}