; Function Attrs: nounwind uwtable
define dso_local range(i32 -30, 1) i32 @archive_read_support_format_gnutar(ptr noundef %0) local_unnamed_addr #0 {
  %2 = tail call i32 @__archive_check_magic(ptr noundef %0, i32 noundef 14594245, i32 noundef 1, ptr noundef nonnull @.str) #13
  %.not = icmp eq i32 %2, -30
  br i1 %.not, label %5, label %3

3:                                                ; preds = %1
  %4 = tail call i32 @archive_read_support_format_tar(ptr noundef %0)
  br label %5

5:                                                ; preds = %1, %3
  %.1 = phi i32 [ -30, %1 ], [ %4, %3 ]
  ret i32 %.1
}